target datalayout = "e-m:e-p270:32:32-p271:32:32-p272:64:64-i64:64-i128:128-f80:128-n8:16:32:64-S128"
target triple = "x86_64-pc-linux-gnu"

%struct.SurfaceDataRasInfo = type { %struct.SurfaceDataBounds, ptr, i32, i32, i32, i32, ptr, ptr, ptr, ptr, ptr, ptr, i32, %union.anon.0 }
%struct.SurfaceDataBounds = type { i32, i32, i32, i32 }
%union.anon.0 = type { ptr, [56 x i8] }
%struct._CompositeInfo = type { i32, %union.anon.1, i32 }
%union.anon.1 = type { float }

; Function Attrs: nounwind uwtable
define hidden void @ByteBinary4BitXorLine(ptr noundef %0, i32 noundef %1, i32 noundef %2, i32 noundef %3, i32 noundef %4, i32 noundef %5, i32 noundef %6, i32 noundef %7, i32 noundef %8, i32 noundef %9, ptr noundef %10, ptr noundef %11) #0 {
  %13 = alloca ptr, align 8
  %14 = alloca i32, align 4
  %15 = alloca i32, align 4
  %16 = alloca i32, align 4
  %17 = alloca i32, align 4
  %18 = alloca i32, align 4
  %19 = alloca i32, align 4
  %20 = alloca i32, align 4
  %21 = alloca i32, align 4
  %22 = alloca i32, align 4
  %23 = alloca ptr, align 8
  %24 = alloca ptr, align 8
  %25 = alloca i32, align 4
  %26 = alloca i32, align 4
  %27 = alloca i32, align 4
  %28 = alloca ptr, align 8
  %29 = alloca i32, align 4
  %30 = alloca i32, align 4
  %31 = alloca i32, align 4
  %32 = alloca i32, align 4
  %33 = alloca i32, align 4
  %34 = alloca i32, align 4
  %35 = alloca i32, align 4
  %36 = alloca i32, align 4
  %37 = alloca i32, align 4
  %38 = alloca i32, align 4
  store ptr %0, ptr %13, align 8
  store i32 %1, ptr %14, align 4
  store i32 %2, ptr %15, align 4
  store i32 %3, ptr %16, align 4
  store i32 %4, ptr %17, align 4
  store i32 %5, ptr %18, align 4
  store i32 %6, ptr %19, align 4
  store i32 %7, ptr %20, align 4
  store i32 %8, ptr %21, align 4
  store i32 %9, ptr %22, align 4
  store ptr %10, ptr %23, align 8
  store ptr %11, ptr %24, align 8
  %39 = load ptr, ptr %24, align 8
  %40 = getelementptr inbounds %struct._CompositeInfo, ptr %39, i32 0, i32 1
  %41 = load i32, ptr %40, align 4
  store i32 %41, ptr %25, align 4
  %42 = load ptr, ptr %24, align 8
  %43 = getelementptr inbounds %struct._CompositeInfo, ptr %42, i32 0, i32 2
  %44 = load i32, ptr %43, align 4
  store i32 %44, ptr %26, align 4
  %45 = load ptr, ptr %13, align 8
  %46 = getelementptr inbounds %struct.SurfaceDataRasInfo, ptr %45, i32 0, i32 4
  %47 = load i32, ptr %46, align 8
  store i32 %47, ptr %27, align 4
  %48 = load ptr, ptr %13, align 8
  %49 = getelementptr inbounds %struct.SurfaceDataRasInfo, ptr %48, i32 0, i32 1
  %50 = load ptr, ptr %49, align 8
  %51 = ptrtoint ptr %50 to i64
  %52 = load i32, ptr %15, align 4
  %53 = sext i32 %52 to i64
  %54 = load i32, ptr %27, align 4
  %55 = sext i32 %54 to i64
  %56 = mul nsw i64 %53, %55
  %57 = load i32, ptr %14, align 4
  %58 = sext i32 %57 to i64
  %59 = mul nsw i64 %58, 0
  %60 = add nsw i64 %56, %59
  %61 = add nsw i64 %51, %60
  %62 = inttoptr i64 %61 to ptr
  store ptr %62, ptr %28, align 8
  %63 = load i32, ptr %27, align 4
  %64 = mul nsw i32 %63, 2
  store i32 %64, ptr %27, align 4
  %65 = load i32, ptr %19, align 4
  %66 = and i32 %65, 1
  %67 = icmp ne i32 %66, 0
  br i1 %67, label %68, label %69

68:                                               ; preds = %12
  br label %87

69:                                               ; preds = %12
  %70 = load i32, ptr %19, align 4
  %71 = and i32 %70, 2
  %72 = icmp ne i32 %71, 0
  br i1 %72, label %73, label %74

73:                                               ; preds = %69
  br label %85

74:                                               ; preds = %69
  %75 = load i32, ptr %19, align 4
  %76 = and i32 %75, 4
  %77 = icmp ne i32 %76, 0
  br i1 %77, label %78, label %80

78:                                               ; preds = %74
  %79 = load i32, ptr %27, align 4
  br label %83

80:                                               ; preds = %74
  %81 = load i32, ptr %27, align 4
  %82 = sub nsw i32 0, %81
  br label %83

83:                                               ; preds = %80, %78
  %84 = phi i32 [ %79, %78 ], [ %82, %80 ]
  br label %85

85:                                               ; preds = %83, %73
  %86 = phi i32 [ -1, %73 ], [ %84, %83 ]
  br label %87

87:                                               ; preds = %85, %68
  %88 = phi i32 [ 1, %68 ], [ %86, %85 ]
  store i32 %88, ptr %29, align 4
  %89 = load i32, ptr %21, align 4
  %90 = and i32 %89, 1
  %91 = icmp ne i32 %90, 0
  br i1 %91, label %92, label %93

92:                                               ; preds = %87
  br label %118

93:                                               ; preds = %87
  %94 = load i32, ptr %21, align 4
  %95 = and i32 %94, 2
  %96 = icmp ne i32 %95, 0
  br i1 %96, label %97, label %98

97:                                               ; preds = %93
  br label %116

98:                                               ; preds = %93
  %99 = load i32, ptr %21, align 4
  %100 = and i32 %99, 4
  %101 = icmp ne i32 %100, 0
  br i1 %101, label %102, label %104

102:                                              ; preds = %98
  %103 = load i32, ptr %27, align 4
  br label %114

104:                                              ; preds = %98
  %105 = load i32, ptr %21, align 4
  %106 = and i32 %105, 8
  %107 = icmp ne i32 %106, 0
  br i1 %107, label %108, label %111

108:                                              ; preds = %104
  %109 = load i32, ptr %27, align 4
  %110 = sub nsw i32 0, %109
  br label %112

111:                                              ; preds = %104
  br label %112

112:                                              ; preds = %111, %108
  %113 = phi i32 [ %110, %108 ], [ 0, %111 ]
  br label %114

114:                                              ; preds = %112, %102
  %115 = phi i32 [ %103, %102 ], [ %113, %112 ]
  br label %116

116:                                              ; preds = %114, %97
  %117 = phi i32 [ -1, %97 ], [ %115, %114 ]
  br label %118

118:                                              ; preds = %116, %92
  %119 = phi i32 [ 1, %92 ], [ %117, %116 ]
  store i32 %119, ptr %30, align 4
  %120 = load i32, ptr %29, align 4
  %121 = load i32, ptr %30, align 4
  %122 = add nsw i32 %121, %120
  store i32 %122, ptr %30, align 4
  %123 = load i32, ptr %20, align 4
  %124 = icmp eq i32 %123, 0
  br i1 %124, label %125, label %167

125:                                              ; preds = %118
  br label %126

126:                                              ; preds = %162, %125
  %127 = load i32, ptr %14, align 4
  %128 = load ptr, ptr %13, align 8
  %129 = getelementptr inbounds %struct.SurfaceDataRasInfo, ptr %128, i32 0, i32 2
  %130 = load i32, ptr %129, align 8
  %131 = sdiv i32 %130, 4
  %132 = add nsw i32 %127, %131
  store i32 %132, ptr %31, align 4
  %133 = load i32, ptr %31, align 4
  %134 = sdiv i32 %133, 2
  store i32 %134, ptr %32, align 4
  %135 = load i32, ptr %31, align 4
  %136 = srem i32 %135, 2
  %137 = mul nsw i32 %136, 4
  %138 = sub nsw i32 4, %137
  store i32 %138, ptr %33, align 4
  %139 = load ptr, ptr %28, align 8
  %140 = load i32, ptr %32, align 4
  %141 = sext i32 %140 to i64
  %142 = getelementptr inbounds i8, ptr %139, i64 %141
  %143 = load i8, ptr %142, align 1
  %144 = zext i8 %143 to i32
  store i32 %144, ptr %34, align 4
  %145 = load i32, ptr %16, align 4
  %146 = load i32, ptr %25, align 4
  %147 = xor i32 %145, %146
  %148 = and i32 %147, 15
  %149 = load i32, ptr %33, align 4
  %150 = shl i32 %148, %149
  %151 = load i32, ptr %34, align 4
  %152 = xor i32 %151, %150
  store i32 %152, ptr %34, align 4
  %153 = load i32, ptr %34, align 4
  %154 = trunc i32 %153 to i8
  %155 = load ptr, ptr %28, align 8
  %156 = load i32, ptr %32, align 4
  %157 = sext i32 %156 to i64
  %158 = getelementptr inbounds i8, ptr %155, i64 %157
  store i8 %154, ptr %158, align 1
  %159 = load i32, ptr %29, align 4
  %160 = load i32, ptr %14, align 4
  %161 = add nsw i32 %160, %159
  store i32 %161, ptr %14, align 4
  br label %162

162:                                              ; preds = %126
  %163 = load i32, ptr %17, align 4
  %164 = add nsw i32 %163, -1
  store i32 %164, ptr %17, align 4
  %165 = icmp sgt i32 %164, 0
  br i1 %165, label %126, label %166, !llvm.loop !19

166:                                              ; preds = %162
  br label %223

167:                                              ; preds = %118
  br label %168

168:                                              ; preds = %218, %167
  %169 = load i32, ptr %14, align 4
  %170 = load ptr, ptr %13, align 8
  %171 = getelementptr inbounds %struct.SurfaceDataRasInfo, ptr %170, i32 0, i32 2
  %172 = load i32, ptr %171, align 8
  %173 = sdiv i32 %172, 4
  %174 = add nsw i32 %169, %173
  store i32 %174, ptr %35, align 4
  %175 = load i32, ptr %35, align 4
  %176 = sdiv i32 %175, 2
  store i32 %176, ptr %36, align 4
  %177 = load i32, ptr %35, align 4
  %178 = srem i32 %177, 2
  %179 = mul nsw i32 %178, 4
  %180 = sub nsw i32 4, %179
  store i32 %180, ptr %37, align 4
  %181 = load ptr, ptr %28, align 8
  %182 = load i32, ptr %36, align 4
  %183 = sext i32 %182 to i64
  %184 = getelementptr inbounds i8, ptr %181, i64 %183
  %185 = load i8, ptr %184, align 1
  %186 = zext i8 %185 to i32
  store i32 %186, ptr %38, align 4
  %187 = load i32, ptr %16, align 4
  %188 = load i32, ptr %25, align 4
  %189 = xor i32 %187, %188
  %190 = and i32 %189, 15
  %191 = load i32, ptr %37, align 4
  %192 = shl i32 %190, %191
  %193 = load i32, ptr %38, align 4
  %194 = xor i32 %193, %192
  store i32 %194, ptr %38, align 4
  %195 = load i32, ptr %38, align 4
  %196 = trunc i32 %195 to i8
  %197 = load ptr, ptr %28, align 8
  %198 = load i32, ptr %36, align 4
  %199 = sext i32 %198 to i64
  %200 = getelementptr inbounds i8, ptr %197, i64 %199
  store i8 %196, ptr %200, align 1
  %201 = load i32, ptr %18, align 4
  %202 = icmp slt i32 %201, 0
  br i1 %202, label %203, label %210

203:                                              ; preds = %168
  %204 = load i32, ptr %29, align 4
  %205 = load i32, ptr %14, align 4
  %206 = add nsw i32 %205, %204
  store i32 %206, ptr %14, align 4
  %207 = load i32, ptr %20, align 4
  %208 = load i32, ptr %18, align 4
  %209 = add nsw i32 %208, %207
  store i32 %209, ptr %18, align 4
  br label %217

210:                                              ; preds = %168
  %211 = load i32, ptr %30, align 4
  %212 = load i32, ptr %14, align 4
  %213 = add nsw i32 %212, %211
  store i32 %213, ptr %14, align 4
  %214 = load i32, ptr %22, align 4
  %215 = load i32, ptr %18, align 4
  %216 = sub nsw i32 %215, %214
  store i32 %216, ptr %18, align 4
  br label %217

217:                                              ; preds = %210, %203
  br label %218

218:                                              ; preds = %217
  %219 = load i32, ptr %17, align 4
  %220 = add nsw i32 %219, -1
  store i32 %220, ptr %17, align 4
  %221 = icmp sgt i32 %220, 0
  br i1 %221, label %168, label %222, !llvm.loop !20

222:                                              ; preds = %218
  br label %223

223:                                              ; preds = %222, %166
  ret void
}