; Function Attrs: nofree norecurse nosync nounwind memory(readwrite, inaccessiblemem: none) uwtable
define hidden void @ByteBinary4BitXorLine(ptr nocapture noundef readonly %0, i32 noundef %1, i32 noundef %2, i32 noundef %3, i32 noundef %4, i32 noundef %5, i32 noundef %6, i32 noundef %7, i32 noundef %8, i32 noundef %9, ptr nocapture readnone %10, ptr nocapture noundef readonly %11) #0 {
  %13 = getelementptr inbounds i8, ptr %11, i64 4
  %14 = load i32, ptr %13, align 4
  %15 = getelementptr inbounds i8, ptr %0, i64 32
  %16 = load i32, ptr %15, align 8
  %17 = getelementptr inbounds i8, ptr %0, i64 16
  %18 = load ptr, ptr %17, align 8
  %19 = ptrtoint ptr %18 to i64
  %20 = sext i32 %2 to i64
  %21 = sext i32 %16 to i64
  %22 = mul nsw i64 %21, %20
  %23 = add nsw i64 %22, %19
  %24 = inttoptr i64 %23 to ptr
  %25 = shl nsw i32 %16, 1
  %26 = and i32 %6, 1
  %.not = icmp eq i32 %26, 0
  br i1 %.not, label %27, label %33

27:                                               ; preds = %12
  %28 = and i32 %6, 2
  %.not65 = icmp eq i32 %28, 0
  br i1 %.not65, label %29, label %33

29:                                               ; preds = %27
  %30 = and i32 %6, 4
  %.not66 = icmp eq i32 %30, 0
  %31 = sub nsw i32 0, %25
  %32 = select i1 %.not66, i32 %31, i32 %25
  br label %33

33:                                               ; preds = %29, %27, %12
  %34 = phi i32 [ 1, %12 ], [ %32, %29 ], [ -1, %27 ]
  %35 = and i32 %8, 1
  %.not67 = icmp eq i32 %35, 0
  br i1 %.not67, label %36, label %44

36:                                               ; preds = %33
  %37 = and i32 %8, 2
  %.not68 = icmp eq i32 %37, 0
  br i1 %.not68, label %38, label %44

38:                                               ; preds = %36
  %39 = and i32 %8, 4
  %.not69 = icmp eq i32 %39, 0
  br i1 %.not69, label %40, label %44

40:                                               ; preds = %38
  %41 = and i32 %8, 8
  %.not70 = icmp eq i32 %41, 0
  %42 = sub nsw i32 0, %25
  %43 = select i1 %.not70, i32 0, i32 %42
  br label %44

44:                                               ; preds = %38, %36, %40, %33
  %45 = phi i32 [ 1, %33 ], [ -1, %36 ], [ %43, %40 ], [ %25, %38 ]
  %46 = icmp eq i32 %7, 0
  %47 = getelementptr inbounds i8, ptr %0, i64 24
  %48 = xor i32 %14, %3
  %49 = and i32 %48, 15
  br i1 %46, label %.preheader, label %.preheader71

.preheader71:                                     ; preds = %44
  %50 = sub i32 0, %9
  br label %67

.preheader:                                       ; preds = %44, %.preheader
  %.060 = phi i32 [ %65, %.preheader ], [ %4, %44 ]
  %.0 = phi i32 [ %64, %.preheader ], [ %1, %44 ]
  %51 = load i32, ptr %47, align 8
  %52 = sdiv i32 %51, 4
  %53 = add nsw i32 %52, %.0
  %54 = sdiv i32 %53, 2
  %55 = srem i32 %53, 2
  %56 = shl nsw i32 %55, 2
  %57 = sub nsw i32 4, %56
  %58 = sext i32 %54 to i64
  %59 = getelementptr inbounds i8, ptr %24, i64 %58
  %60 = load i8, ptr %59, align 1
  %61 = shl nuw nsw i32 %49, %57
  %62 = trunc i32 %61 to i8
  %63 = xor i8 %60, %62
  store i8 %63, ptr %59, align 1
  %64 = add nsw i32 %.0, %34
  %65 = add nsw i32 %.060, -1
  %66 = icmp sgt i32 %.060, 1
  br i1 %66, label %.preheader, label %.loopexit, !llvm.loop !19

67:                                               ; preds = %.preheader71, %67
  %.062 = phi i32 [ %.163, %67 ], [ %5, %.preheader71 ]
  %.161 = phi i32 [ %83, %67 ], [ %4, %.preheader71 ]
  %.1 = phi i32 [ %.2, %67 ], [ %1, %.preheader71 ]
  %68 = load i32, ptr %47, align 8
  %69 = sdiv i32 %68, 4
  %70 = add nsw i32 %69, %.1
  %71 = sdiv i32 %70, 2
  %72 = srem i32 %70, 2
  %73 = shl nsw i32 %72, 2
  %74 = sub nsw i32 4, %73
  %75 = sext i32 %71 to i64
  %76 = getelementptr inbounds i8, ptr %24, i64 %75
  %77 = load i8, ptr %76, align 1
  %78 = shl nuw nsw i32 %49, %74
  %79 = trunc i32 %78 to i8
  %80 = xor i8 %77, %79
  store i8 %80, ptr %76, align 1
  %81 = icmp slt i32 %.062, 0
  %.163.p = select i1 %81, i32 %7, i32 %50
  %.163 = add i32 %.163.p, %.062
  %82 = select i1 %81, i32 0, i32 %45
  %.pn = add nsw i32 %82, %34
  %.2 = add nsw i32 %.pn, %.1
  %83 = add nsw i32 %.161, -1
  %84 = icmp sgt i32 %.161, 1
  br i1 %84, label %67, label %.loopexit, !llvm.loop !20

.loopexit:                                        ; preds = %67, %.preheader
  ret void
}